; Function Attrs: mustprogress nounwind uwtable
define hidden void @_ZN12ZNMethodDataC2Ev(ptr noundef nonnull align 8 dereferenceable(153) %0) unnamed_addr #0 align 2 {
  %2 = getelementptr inbounds i8, ptr %0, i64 8
  tail call void @llvm.memset.p0.i64(ptr noundef nonnull align 8 dereferenceable(40) %2, i8 0, i64 40, i1 false)
  tail call void @_ZN13PlatformMutexC1Ev(ptr noundef nonnull align 8 dereferenceable(40) %2) #7
  %3 = getelementptr inbounds i8, ptr %0, i64 48
  store volatile ptr null, ptr %3, align 8
  %4 = getelementptr inbounds i8, ptr %0, i64 56
  %5 = getelementptr inbounds i8, ptr %0, i64 64
  tail call void @llvm.memset.p0.i64(ptr noundef nonnull align 8 dereferenceable(48) %4, i8 0, i64 48, i1 false)
  tail call void @_ZN13PlatformMutexC1Ev(ptr noundef nonnull align 8 dereferenceable(40) %5) #7
  %6 = getelementptr inbounds i8, ptr %0, i64 104
  store volatile ptr null, ptr %6, align 8
  %7 = getelementptr inbounds i8, ptr %0, i64 112
  tail call void @llvm.memset.p0.i64(ptr noundef nonnull align 8 dereferenceable(41) %7, i8 0, i64 41, i1 false)
  ret void
}